target datalayout = "e-m:e-p270:32:32-p271:32:32-p272:64:64-i64:64-i128:128-f80:128-n8:16:32:64-S128"
target triple = "x86_64-pc-linux-gnu"

@hf_rr_gps_almanac_pn = internal global i32 0, align 4
@hf_rr_gps_almanac_wn = internal global i32 0, align 4
@hf_rr_gps_almanac_word = internal global i32 0, align 4
@hf_rr_gps_almanac_sfn = internal global i32 0, align 4
@hf_rr_gps_almanac_co = internal global i32 0, align 4
@hf_rr_gps_almanac_spare = internal global i32 0, align 4

; Function Attrs: null_pointer_is_valid sspstrong uwtable
define internal zeroext i16 @gmr1_ie_rr_gps_almanac(ptr noundef %0, ptr noundef %1, ptr noundef %2, i32 noundef %3, i32 noundef %4, ptr noundef %5, i32 noundef %6) #1 {
  %8 = alloca ptr, align 8
  %9 = alloca ptr, align 8
  %10 = alloca ptr, align 8
  %11 = alloca i32, align 4
  %12 = alloca i32, align 4
  %13 = alloca ptr, align 8
  %14 = alloca i32, align 4
  %15 = alloca i32, align 4
  store ptr %0, ptr %8, align 8
  store ptr %1, ptr %9, align 8
  store ptr %2, ptr %10, align 8
  store i32 %3, ptr %11, align 4
  store i32 %4, ptr %12, align 4
  store ptr %5, ptr %13, align 8
  store i32 %6, ptr %14, align 4
  call void @llvm.lifetime.start.p0(i64 4, ptr %15) #5
  %16 = load i32, ptr %11, align 4
  store i32 %16, ptr %15, align 4
  %17 = load ptr, ptr %9, align 8
  %18 = load i32, ptr @hf_rr_gps_almanac_pn, align 4
  %19 = load ptr, ptr %8, align 8
  %20 = load i32, ptr %15, align 4
  %21 = call ptr @proto_tree_add_item(ptr noundef %17, i32 noundef %18, ptr noundef %19, i32 noundef %20, i32 noundef 1, i32 noundef 0)
  %22 = load ptr, ptr %9, align 8
  %23 = load i32, ptr @hf_rr_gps_almanac_wn, align 4
  %24 = load ptr, ptr %8, align 8
  %25 = load i32, ptr %15, align 4
  %26 = call ptr @proto_tree_add_item(ptr noundef %22, i32 noundef %23, ptr noundef %24, i32 noundef %25, i32 noundef 1, i32 noundef 0)
  %27 = load i32, ptr %15, align 4
  %28 = add i32 %27, 1
  store i32 %28, ptr %15, align 4
  %29 = load ptr, ptr %9, align 8
  %30 = load i32, ptr @hf_rr_gps_almanac_word, align 4
  %31 = load ptr, ptr %8, align 8
  %32 = load i32, ptr %15, align 4
  %33 = call ptr @proto_tree_add_item(ptr noundef %29, i32 noundef %30, ptr noundef %31, i32 noundef %32, i32 noundef 3, i32 noundef 0)
  %34 = load i32, ptr %15, align 4
  %35 = add i32 %34, 3
  store i32 %35, ptr %15, align 4
  %36 = load ptr, ptr %9, align 8
  %37 = load i32, ptr @hf_rr_gps_almanac_sfn, align 4
  %38 = load ptr, ptr %8, align 8
  %39 = load i32, ptr %15, align 4
  %40 = call ptr @proto_tree_add_item(ptr noundef %36, i32 noundef %37, ptr noundef %38, i32 noundef %39, i32 noundef 1, i32 noundef 0)
  %41 = load ptr, ptr %9, align 8
  %42 = load i32, ptr @hf_rr_gps_almanac_co, align 4
  %43 = load ptr, ptr %8, align 8
  %44 = load i32, ptr %15, align 4
  %45 = call ptr @proto_tree_add_item(ptr noundef %41, i32 noundef %42, ptr noundef %43, i32 noundef %44, i32 noundef 1, i32 noundef 0)
  %46 = load ptr, ptr %9, align 8
  %47 = load i32, ptr @hf_rr_gps_almanac_spare, align 4
  %48 = load ptr, ptr %8, align 8
  %49 = load i32, ptr %15, align 4
  %50 = call ptr @proto_tree_add_item(ptr noundef %46, i32 noundef %47, ptr noundef %48, i32 noundef %49, i32 noundef 1, i32 noundef 0)
  %51 = load i32, ptr %15, align 4
  %52 = add i32 %51, 1
  store i32 %52, ptr %15, align 4
  call void @llvm.lifetime.end.p0(i64 4, ptr %15) #5
  ret i16 5
}